; Function Attrs: mustprogress uwtable
define hidden noundef zeroext i1 @_ZNK4cvc58internal23CodatatypeBoundVariablegeERKS1_(ptr noundef nonnull align 8 dereferenceable(24) %this, ptr noundef nonnull align 8 dereferenceable(24) %cbv) local_unnamed_addr #3 align 2 {
entry:
  %0 = load ptr, ptr %this, align 8
  %1 = load ptr, ptr %cbv, align 8
  %2 = load ptr, ptr %0, align 8
  %bf.load.i.i = load i64, ptr %2, align 8
  %bf.clear.i.i = and i64 %bf.load.i.i, 1099511627775
  %3 = load ptr, ptr %1, align 8
  %bf.load3.i.i = load i64, ptr %3, align 8
  %bf.clear4.i.i = and i64 %bf.load3.i.i, 1099511627775
  %cmp.i.i = icmp samesign ult i64 %bf.clear.i.i, %bf.clear4.i.i
  br i1 %cmp.i.i, label %_ZNK4cvc58internal23CodatatypeBoundVariableltERKS1_.exit, label %lor.rhs.i

lor.rhs.i:                                        ; preds = %entry
  %cmp.i3.i = icmp eq ptr %2, %3
  br i1 %cmp.i3.i, label %land.rhs.i, label %_ZNK4cvc58internal23CodatatypeBoundVariableltERKS1_.exit

land.rhs.i:                                       ; preds = %lor.rhs.i
  %d_index.i = getelementptr inbounds nuw i8, ptr %this, i64 8
  %d_index7.i = getelementptr inbounds nuw i8, ptr %cbv, i64 8
  %call8.i = tail call noundef zeroext i1 @_ZNK4cvc58internal7IntegerltERKS1_(ptr noundef nonnull align 8 dereferenceable(16) %d_index.i, ptr noundef nonnull align 8 dereferenceable(16) %d_index7.i)
  %4 = xor i1 %call8.i, true
  br label %_ZNK4cvc58internal23CodatatypeBoundVariableltERKS1_.exit

_ZNK4cvc58internal23CodatatypeBoundVariableltERKS1_.exit: ; preds = %entry, %lor.rhs.i, %land.rhs.i
  %lnot = phi i1 [ false, %entry ], [ true, %lor.rhs.i ], [ %4, %land.rhs.i ]
  ret i1 %lnot
}